target datalayout = "e-m:e-p270:32:32-p271:32:32-p272:64:64-i64:64-i128:128-f80:128-n8:16:32:64-S128"
target triple = "x86_64-pc-linux-gnu"

%struct.BIT_DStream_t = type { i64, i32, ptr, ptr, ptr }

; Function Attrs: nounwind uwtable
define internal i64 @MEM_swap64(i64 noundef %0) #0 {
  %2 = alloca i64, align 8
  store i64 %0, ptr %2, align 8
  %3 = load i64, ptr %2, align 8
  %4 = call i64 @llvm.bswap.i64(i64 %3)
  ret i64 %4
}

; Function Attrs: nounwind uwtable
define internal i64 @MEM_read64(ptr noundef %0) #0 {
  %2 = alloca ptr, align 8
  store ptr %0, ptr %2, align 8
  %3 = load ptr, ptr %2, align 8
  %4 = load i64, ptr %3, align 1
  ret i64 %4
}

; Function Attrs: nounwind uwtable
define internal i32 @MEM_swap32(i32 noundef %0) #0 {
  %2 = alloca i32, align 4
  store i32 %0, ptr %2, align 4
  %3 = load i32, ptr %2, align 4
  %4 = call i32 @llvm.bswap.i32(i32 %3)
  ret i32 %4
}

; Function Attrs: nounwind uwtable
define internal i32 @MEM_read32(ptr noundef %0) #0 {
  %2 = alloca ptr, align 8
  store ptr %0, ptr %2, align 8
  %3 = load ptr, ptr %2, align 8
  %4 = load i32, ptr %3, align 1
  ret i32 %4
}

; Function Attrs: nounwind uwtable
define internal i32 @MEM_isLittleEndian() #0 {
  ret i32 1
}

; Function Attrs: nounwind uwtable
define internal i32 @ZSTD_countLeadingZeros32(i32 noundef %0) #0 {
  %2 = alloca i32, align 4
  store i32 %0, ptr %2, align 4
  %3 = load i32, ptr %2, align 4
  %4 = call i32 @llvm.ctlz.i32(i32 %3, i1 true)
  ret i32 %4
}

; Function Attrs: nounwind uwtable
define internal i64 @MEM_readLE64(ptr noundef %0) #0 {
  %2 = alloca i64, align 8
  %3 = alloca ptr, align 8
  store ptr %0, ptr %3, align 8
  %4 = call i32 @MEM_isLittleEndian()
  %5 = icmp ne i32 %4, 0
  br i1 %5, label %6, label %9

6:                                                ; preds = %1
  %7 = load ptr, ptr %3, align 8
  %8 = call i64 @MEM_read64(ptr noundef %7)
  store i64 %8, ptr %2, align 8
  br label %13

9:                                                ; preds = %1
  %10 = load ptr, ptr %3, align 8
  %11 = call i64 @MEM_read64(ptr noundef %10)
  %12 = call i64 @MEM_swap64(i64 noundef %11)
  store i64 %12, ptr %2, align 8
  br label %13

13:                                               ; preds = %9, %6
  %14 = load i64, ptr %2, align 8
  ret i64 %14
}

; Function Attrs: nounwind uwtable
define internal i32 @MEM_readLE32(ptr noundef %0) #0 {
  %2 = alloca i32, align 4
  %3 = alloca ptr, align 8
  store ptr %0, ptr %3, align 8
  %4 = call i32 @MEM_isLittleEndian()
  %5 = icmp ne i32 %4, 0
  br i1 %5, label %6, label %9

6:                                                ; preds = %1
  %7 = load ptr, ptr %3, align 8
  %8 = call i32 @MEM_read32(ptr noundef %7)
  store i32 %8, ptr %2, align 4
  br label %13

9:                                                ; preds = %1
  %10 = load ptr, ptr %3, align 8
  %11 = call i32 @MEM_read32(ptr noundef %10)
  %12 = call i32 @MEM_swap32(i32 noundef %11)
  store i32 %12, ptr %2, align 4
  br label %13

13:                                               ; preds = %9, %6
  %14 = load i32, ptr %2, align 4
  ret i32 %14
}

; Function Attrs: nounwind uwtable
define internal i32 @MEM_32bits() #0 {
  ret i32 0
}

; Function Attrs: nounwind uwtable
define internal i32 @ZSTD_highbit32(i32 noundef %0) #0 {
  %2 = alloca i32, align 4
  store i32 %0, ptr %2, align 4
  %3 = load i32, ptr %2, align 4
  %4 = call i32 @ZSTD_countLeadingZeros32(i32 noundef %3)
  %5 = sub i32 31, %4
  ret i32 %5
}

; Function Attrs: nounwind uwtable
define internal i64 @MEM_readLEST(ptr noundef %0) #0 {
  %2 = alloca i64, align 8
  %3 = alloca ptr, align 8
  store ptr %0, ptr %3, align 8
  %4 = call i32 @MEM_32bits()
  %5 = icmp ne i32 %4, 0
  br i1 %5, label %6, label %10

6:                                                ; preds = %1
  %7 = load ptr, ptr %3, align 8
  %8 = call i32 @MEM_readLE32(ptr noundef %7)
  %9 = zext i32 %8 to i64
  store i64 %9, ptr %2, align 8
  br label %13

10:                                               ; preds = %1
  %11 = load ptr, ptr %3, align 8
  %12 = call i64 @MEM_readLE64(ptr noundef %11)
  store i64 %12, ptr %2, align 8
  br label %13

13:                                               ; preds = %10, %6
  %14 = load i64, ptr %2, align 8
  ret i64 %14
}

; Function Attrs: nounwind uwtable
define internal i64 @BIT_initDStream(ptr noundef %0, ptr noundef %1, i64 noundef %2) #0 {
  %4 = alloca i64, align 8
  %5 = alloca ptr, align 8
  %6 = alloca ptr, align 8
  %7 = alloca i64, align 8
  %8 = alloca i8, align 1
  %9 = alloca i8, align 1
  store ptr %0, ptr %5, align 8
  store ptr %1, ptr %6, align 8
  store i64 %2, ptr %7, align 8
  %10 = load i64, ptr %7, align 8
  %11 = icmp ult i64 %10, 1
  br i1 %11, label %12, label %14

12:                                               ; preds = %3
  %13 = load ptr, ptr %5, align 8
  call void @llvm.memset.p0.i64(ptr align 8 %13, i8 0, i64 40, i1 false)
  store i64 -72, ptr %4, align 8
  br label %171

14:                                               ; preds = %3
  %15 = load ptr, ptr %6, align 8
  %16 = load ptr, ptr %5, align 8
  %17 = getelementptr inbounds %struct.BIT_DStream_t, ptr %16, i32 0, i32 3
  store ptr %15, ptr %17, align 8
  %18 = load ptr, ptr %5, align 8
  %19 = getelementptr inbounds %struct.BIT_DStream_t, ptr %18, i32 0, i32 3
  %20 = load ptr, ptr %19, align 8
  %21 = getelementptr inbounds i8, ptr %20, i64 8
  %22 = load ptr, ptr %5, align 8
  %23 = getelementptr inbounds %struct.BIT_DStream_t, ptr %22, i32 0, i32 4
  store ptr %21, ptr %23, align 8
  %24 = load i64, ptr %7, align 8
  %25 = icmp uge i64 %24, 8
  br i1 %25, label %26, label %62

26:                                               ; preds = %14
  %27 = load ptr, ptr %6, align 8
  %28 = load i64, ptr %7, align 8
  %29 = getelementptr inbounds i8, ptr %27, i64 %28
  %30 = getelementptr inbounds i8, ptr %29, i64 -8
  %31 = load ptr, ptr %5, align 8
  %32 = getelementptr inbounds %struct.BIT_DStream_t, ptr %31, i32 0, i32 2
  store ptr %30, ptr %32, align 8
  %33 = load ptr, ptr %5, align 8
  %34 = getelementptr inbounds %struct.BIT_DStream_t, ptr %33, i32 0, i32 2
  %35 = load ptr, ptr %34, align 8
  %36 = call i64 @MEM_readLEST(ptr noundef %35)
  %37 = load ptr, ptr %5, align 8
  %38 = getelementptr inbounds %struct.BIT_DStream_t, ptr %37, i32 0, i32 0
  store i64 %36, ptr %38, align 8
  %39 = load ptr, ptr %6, align 8
  %40 = load i64, ptr %7, align 8
  %41 = sub i64 %40, 1
  %42 = getelementptr inbounds i8, ptr %39, i64 %41
  %43 = load i8, ptr %42, align 1
  store i8 %43, ptr %8, align 1
  %44 = load i8, ptr %8, align 1
  %45 = zext i8 %44 to i32
  %46 = icmp ne i32 %45, 0
  br i1 %46, label %47, label %52

47:                                               ; preds = %26
  %48 = load i8, ptr %8, align 1
  %49 = zext i8 %48 to i32
  %50 = call i32 @ZSTD_highbit32(i32 noundef %49)
  %51 = sub i32 8, %50
  br label %53

52:                                               ; preds = %26
  br label %53

53:                                               ; preds = %52, %47
  %54 = phi i32 [ %51, %47 ], [ 0, %52 ]
  %55 = load ptr, ptr %5, align 8
  %56 = getelementptr inbounds %struct.BIT_DStream_t, ptr %55, i32 0, i32 1
  store i32 %54, ptr %56, align 8
  %57 = load i8, ptr %8, align 1
  %58 = zext i8 %57 to i32
  %59 = icmp eq i32 %58, 0
  br i1 %59, label %60, label %61

60:                                               ; preds = %53
  store i64 -1, ptr %4, align 8
  br label %171

61:                                               ; preds = %53
  br label %169

62:                                               ; preds = %14
  %63 = load ptr, ptr %5, align 8
  %64 = getelementptr inbounds %struct.BIT_DStream_t, ptr %63, i32 0, i32 3
  %65 = load ptr, ptr %64, align 8
  %66 = load ptr, ptr %5, align 8
  %67 = getelementptr inbounds %struct.BIT_DStream_t, ptr %66, i32 0, i32 2
  store ptr %65, ptr %67, align 8
  %68 = load ptr, ptr %5, align 8
  %69 = getelementptr inbounds %struct.BIT_DStream_t, ptr %68, i32 0, i32 3
  %70 = load ptr, ptr %69, align 8
  %71 = load i8, ptr %70, align 1
  %72 = zext i8 %71 to i64
  %73 = load ptr, ptr %5, align 8
  %74 = getelementptr inbounds %struct.BIT_DStream_t, ptr %73, i32 0, i32 0
  store i64 %72, ptr %74, align 8
  %75 = load i64, ptr %7, align 8
  switch i64 %75, label %136 [
    i64 7, label %76
    i64 6, label %86
    i64 5, label %96
    i64 4, label %106
    i64 3, label %116
    i64 2, label %126
  ]

76:                                               ; preds = %62
  %77 = load ptr, ptr %6, align 8
  %78 = getelementptr inbounds i8, ptr %77, i64 6
  %79 = load i8, ptr %78, align 1
  %80 = zext i8 %79 to i64
  %81 = shl i64 %80, 48
  %82 = load ptr, ptr %5, align 8
  %83 = getelementptr inbounds %struct.BIT_DStream_t, ptr %82, i32 0, i32 0
  %84 = load i64, ptr %83, align 8
  %85 = add i64 %84, %81
  store i64 %85, ptr %83, align 8
  br label %86

86:                                               ; preds = %76, %62
  %87 = load ptr, ptr %6, align 8
  %88 = getelementptr inbounds i8, ptr %87, i64 5
  %89 = load i8, ptr %88, align 1
  %90 = zext i8 %89 to i64
  %91 = shl i64 %90, 40
  %92 = load ptr, ptr %5, align 8
  %93 = getelementptr inbounds %struct.BIT_DStream_t, ptr %92, i32 0, i32 0
  %94 = load i64, ptr %93, align 8
  %95 = add i64 %94, %91
  store i64 %95, ptr %93, align 8
  br label %96

96:                                               ; preds = %86, %62
  %97 = load ptr, ptr %6, align 8
  %98 = getelementptr inbounds i8, ptr %97, i64 4
  %99 = load i8, ptr %98, align 1
  %100 = zext i8 %99 to i64
  %101 = shl i64 %100, 32
  %102 = load ptr, ptr %5, align 8
  %103 = getelementptr inbounds %struct.BIT_DStream_t, ptr %102, i32 0, i32 0
  %104 = load i64, ptr %103, align 8
  %105 = add i64 %104, %101
  store i64 %105, ptr %103, align 8
  br label %106

106:                                              ; preds = %96, %62
  %107 = load ptr, ptr %6, align 8
  %108 = getelementptr inbounds i8, ptr %107, i64 3
  %109 = load i8, ptr %108, align 1
  %110 = zext i8 %109 to i64
  %111 = shl i64 %110, 24
  %112 = load ptr, ptr %5, align 8
  %113 = getelementptr inbounds %struct.BIT_DStream_t, ptr %112, i32 0, i32 0
  %114 = load i64, ptr %113, align 8
  %115 = add i64 %114, %111
  store i64 %115, ptr %113, align 8
  br label %116

116:                                              ; preds = %106, %62
  %117 = load ptr, ptr %6, align 8
  %118 = getelementptr inbounds i8, ptr %117, i64 2
  %119 = load i8, ptr %118, align 1
  %120 = zext i8 %119 to i64
  %121 = shl i64 %120, 16
  %122 = load ptr, ptr %5, align 8
  %123 = getelementptr inbounds %struct.BIT_DStream_t, ptr %122, i32 0, i32 0
  %124 = load i64, ptr %123, align 8
  %125 = add i64 %124, %121
  store i64 %125, ptr %123, align 8
  br label %126

126:                                              ; preds = %116, %62
  %127 = load ptr, ptr %6, align 8
  %128 = getelementptr inbounds i8, ptr %127, i64 1
  %129 = load i8, ptr %128, align 1
  %130 = zext i8 %129 to i64
  %131 = shl i64 %130, 8
  %132 = load ptr, ptr %5, align 8
  %133 = getelementptr inbounds %struct.BIT_DStream_t, ptr %132, i32 0, i32 0
  %134 = load i64, ptr %133, align 8
  %135 = add i64 %134, %131
  store i64 %135, ptr %133, align 8
  br label %136

136:                                              ; preds = %126, %62
  br label %137

137:                                              ; preds = %136
  %138 = load ptr, ptr %6, align 8
  %139 = load i64, ptr %7, align 8
  %140 = sub i64 %139, 1
  %141 = getelementptr inbounds i8, ptr %138, i64 %140
  %142 = load i8, ptr %141, align 1
  store i8 %142, ptr %9, align 1
  %143 = load i8, ptr %9, align 1
  %144 = zext i8 %143 to i32
  %145 = icmp ne i32 %144, 0
  br i1 %145, label %146, label %151

146:                                              ; preds = %137
  %147 = load i8, ptr %9, align 1
  %148 = zext i8 %147 to i32
  %149 = call i32 @ZSTD_highbit32(i32 noundef %148)
  %150 = sub i32 8, %149
  br label %152

151:                                              ; preds = %137
  br label %152

152:                                              ; preds = %151, %146
  %153 = phi i32 [ %150, %146 ], [ 0, %151 ]
  %154 = load ptr, ptr %5, align 8
  %155 = getelementptr inbounds %struct.BIT_DStream_t, ptr %154, i32 0, i32 1
  store i32 %153, ptr %155, align 8
  %156 = load i8, ptr %9, align 1
  %157 = zext i8 %156 to i32
  %158 = icmp eq i32 %157, 0
  br i1 %158, label %159, label %160

159:                                              ; preds = %152
  store i64 -20, ptr %4, align 8
  br label %171

160:                                              ; preds = %152
  %161 = load i64, ptr %7, align 8
  %162 = sub i64 8, %161
  %163 = trunc i64 %162 to i32
  %164 = mul i32 %163, 8
  %165 = load ptr, ptr %5, align 8
  %166 = getelementptr inbounds %struct.BIT_DStream_t, ptr %165, i32 0, i32 1
  %167 = load i32, ptr %166, align 8
  %168 = add i32 %167, %164
  store i32 %168, ptr %166, align 8
  br label %169

169:                                              ; preds = %160, %61
  %170 = load i64, ptr %7, align 8
  store i64 %170, ptr %4, align 8
  br label %171

171:                                              ; preds = %169, %159, %60, %12
  %172 = load i64, ptr %4, align 8
  ret i64 %172
}