; Function Attrs: mustprogress nofree norecurse nosync nounwind willreturn memory(argmem: readwrite) uwtable
define internal fastcc range(i64 1, 0) i64 @BIT_initDStream(ptr noundef nonnull writeonly captures(none) initializes((0, 12), (16, 40)) %0, ptr noundef %1, i64 noundef %2) unnamed_addr #7 {
  %4 = icmp eq i64 %2, 0
  br i1 %4, label %5, label %6

5:                                                ; preds = %3
  tail call void @llvm.memset.p0.i64(ptr noundef nonnull align 8 dereferenceable(40) %0, i8 0, i64 40, i1 false)
  br label %82

6:                                                ; preds = %3
  %7 = getelementptr inbounds nuw i8, ptr %0, i64 24
  store ptr %1, ptr %7, align 8
  %8 = getelementptr inbounds nuw i8, ptr %1, i64 8
  %9 = getelementptr inbounds nuw i8, ptr %0, i64 32
  store ptr %8, ptr %9, align 8
  %10 = icmp ugt i64 %2, 7
  br i1 %10, label %11, label %24

11:                                               ; preds = %6
  %12 = getelementptr inbounds i8, ptr %1, i64 %2
  %13 = getelementptr inbounds i8, ptr %12, i64 -8
  %14 = getelementptr inbounds nuw i8, ptr %0, i64 16
  store ptr %13, ptr %14, align 8
  %.val = load i64, ptr %13, align 1
  store i64 %.val, ptr %0, align 8
  %15 = getelementptr i8, ptr %12, i64 -1
  %16 = load i8, ptr %15, align 1
  %.not47 = icmp eq i8 %16, 0
  br i1 %.not47, label %.thread, label %18

.thread:                                          ; preds = %11
  %17 = getelementptr inbounds nuw i8, ptr %0, i64 8
  store i32 0, ptr %17, align 8
  br label %82

18:                                               ; preds = %11
  %19 = zext i8 %16 to i32
  %20 = tail call range(i32 24, 32) i32 @llvm.ctlz.i32(i32 range(i32 1, 256) %19, i1 true)
  %21 = xor i32 %20, 31
  %22 = sub nuw nsw i32 8, %21
  %23 = getelementptr inbounds nuw i8, ptr %0, i64 8
  store i32 %22, ptr %23, align 8
  br label %82

24:                                               ; preds = %6
  %25 = getelementptr inbounds nuw i8, ptr %0, i64 16
  store ptr %1, ptr %25, align 8
  %26 = load i8, ptr %1, align 1
  %27 = zext i8 %26 to i64
  store i64 %27, ptr %0, align 8
  switch i64 %2, label %69 [
    i64 7, label %28
    i64 6, label %34
    i64 5, label %41
    i64 4, label %48
    i64 3, label %55
    i64 2, label %62
  ]

28:                                               ; preds = %24
  %29 = getelementptr inbounds nuw i8, ptr %1, i64 6
  %30 = load i8, ptr %29, align 1
  %31 = zext i8 %30 to i64
  %32 = shl nuw nsw i64 %31, 48
  %33 = or disjoint i64 %32, %27
  store i64 %33, ptr %0, align 8
  br label %34

34:                                               ; preds = %28, %24
  %35 = phi i64 [ %33, %28 ], [ %27, %24 ]
  %36 = getelementptr inbounds nuw i8, ptr %1, i64 5
  %37 = load i8, ptr %36, align 1
  %38 = zext i8 %37 to i64
  %39 = shl nuw nsw i64 %38, 40
  %40 = add nuw nsw i64 %39, %35
  store i64 %40, ptr %0, align 8
  br label %41

41:                                               ; preds = %34, %24
  %42 = phi i64 [ %40, %34 ], [ %27, %24 ]
  %43 = getelementptr inbounds nuw i8, ptr %1, i64 4
  %44 = load i8, ptr %43, align 1
  %45 = zext i8 %44 to i64
  %46 = shl nuw nsw i64 %45, 32
  %47 = add nuw nsw i64 %46, %42
  store i64 %47, ptr %0, align 8
  br label %48

48:                                               ; preds = %41, %24
  %49 = phi i64 [ %47, %41 ], [ %27, %24 ]
  %50 = getelementptr inbounds nuw i8, ptr %1, i64 3
  %51 = load i8, ptr %50, align 1
  %52 = zext i8 %51 to i64
  %53 = shl nuw nsw i64 %52, 24
  %54 = add nuw nsw i64 %53, %49
  store i64 %54, ptr %0, align 8
  br label %55

55:                                               ; preds = %48, %24
  %56 = phi i64 [ %54, %48 ], [ %27, %24 ]
  %57 = getelementptr inbounds nuw i8, ptr %1, i64 2
  %58 = load i8, ptr %57, align 1
  %59 = zext i8 %58 to i64
  %60 = shl nuw nsw i64 %59, 16
  %61 = add nuw nsw i64 %60, %56
  store i64 %61, ptr %0, align 8
  br label %62

62:                                               ; preds = %55, %24
  %63 = phi i64 [ %61, %55 ], [ %27, %24 ]
  %64 = getelementptr inbounds nuw i8, ptr %1, i64 1
  %65 = load i8, ptr %64, align 1
  %66 = zext i8 %65 to i64
  %67 = shl nuw nsw i64 %66, 8
  %68 = add nuw nsw i64 %67, %63
  store i64 %68, ptr %0, align 8
  br label %69

69:                                               ; preds = %24, %62
  %70 = getelementptr i8, ptr %1, i64 %2
  %71 = getelementptr i8, ptr %70, i64 -1
  %72 = load i8, ptr %71, align 1
  %.not = icmp eq i8 %72, 0
  br i1 %.not, label %.thread48, label %74

.thread48:                                        ; preds = %69
  %73 = getelementptr inbounds nuw i8, ptr %0, i64 8
  store i32 0, ptr %73, align 8
  br label %82

74:                                               ; preds = %69
  %75 = zext i8 %72 to i32
  %76 = tail call range(i32 24, 32) i32 @llvm.ctlz.i32(i32 range(i32 1, 256) %75, i1 true)
  %77 = getelementptr inbounds nuw i8, ptr %0, i64 8
  %78 = trunc nuw i64 %2 to i32
  %79 = shl nuw nsw i32 %78, 3
  %80 = sub nsw i32 %76, %79
  %81 = add nsw i32 %80, 41
  store i32 %81, ptr %77, align 8
  br label %82

82:                                               ; preds = %74, %18, %.thread48, %.thread, %5
  %.0 = phi i64 [ -72, %5 ], [ -1, %.thread ], [ -20, %.thread48 ], [ %2, %18 ], [ %2, %74 ]
  ret i64 %.0
}